target datalayout = "e-m:e-p270:32:32-p271:32:32-p272:64:64-i64:64-i128:128-f80:128-n8:16:32:64-S128"
target triple = "x86_64-pc-linux-gnu"

%struct._packet_info = type { ptr, ptr, i32, i32, %struct.nstime_t, %struct.nstime_t, %struct.nstime_t, i8, ptr, ptr, ptr, ptr, %struct._address, %struct._address, %struct._address, %struct._address, %struct._address, %struct._address, i32, ptr, i8, [3 x i8], %struct.anon, i32, i32, i32, i32, ptr, i8, ptr, ptr, i16, i16, i32, i32, i16, i32, i32, ptr, ptr, ptr, i8, i8, i16, i16, i16, i32, i16, i16, ptr, ptr, ptr, ptr, ptr, i32, i32 }
%struct.nstime_t = type { i64, i32 }
%struct._address = type { i32, i32, ptr, ptr }
%struct.anon = type { i8, [3 x i8] }
%struct.RlcMacPrivateData_t = type { i32, i32, i8, i32, i32, %union.anon }
%union.anon = type { %struct.egprs_ul_header_info_t }
%struct.egprs_ul_header_info_t = type { i16, i16, i8 }

@sub_handles = internal global [31 x ptr] zeroinitializer, align 16
@data_block_len_by_mcs = internal constant [11 x i32] [i32 0, i32 22, i32 28, i32 37, i32 44, i32 56, i32 74, i32 56, i32 68, i32 74, i32 0], align 16

; Function Attrs: nounwind null_pointer_is_valid sspstrong uwtable
define internal void @setup_rlc_mac_priv(ptr noundef %0, i1 noundef zeroext %1, ptr noundef %2, ptr noundef %3, ptr noundef %4) #4 {
  %6 = alloca ptr, align 8
  %7 = alloca i8, align 1
  %8 = alloca ptr, align 8
  %9 = alloca ptr, align 8
  %10 = alloca ptr, align 8
  %11 = alloca i32, align 4
  %12 = alloca i32, align 4
  %13 = alloca [2 x i32], align 4
  store ptr %0, ptr %6, align 8
  %14 = zext i1 %1 to i8
  store i8 %14, ptr %7, align 1
  store ptr %2, ptr %8, align 8
  store ptr %3, ptr %9, align 8
  store ptr %4, ptr %10, align 8
  call void @llvm.lifetime.start.p0(i64 4, ptr %11) #10
  call void @llvm.lifetime.start.p0(i64 4, ptr %12) #10
  store i32 0, ptr %12, align 4
  call void @llvm.lifetime.start.p0(i64 8, ptr %13) #10
  call void @llvm.memset.p0.i64(ptr align 4 %13, i8 0, i64 8, i1 false)
  %15 = load ptr, ptr %6, align 8
  %16 = getelementptr inbounds nuw %struct.RlcMacPrivateData_t, ptr %15, i32 0, i32 2
  %17 = load i8, ptr %16, align 4
  %18 = zext i8 %17 to i64
  %19 = getelementptr [11 x i32], ptr @data_block_len_by_mcs, i64 0, i64 %18
  %20 = load i32, ptr %19, align 4
  store i32 %20, ptr %12, align 4
  %21 = load ptr, ptr %6, align 8
  %22 = getelementptr inbounds nuw %struct.RlcMacPrivateData_t, ptr %21, i32 0, i32 1
  %23 = load i32, ptr %22, align 4
  switch i32 %23, label %43 [
    i32 49, label %24
    i32 50, label %36
    i32 51, label %41
  ]

24:                                               ; preds = %5
  store i32 3, ptr %11, align 4
  %25 = load i8, ptr %7, align 1, !range !6, !noundef !7
  %26 = trunc i8 %25 to i1
  %27 = select i1 %26, i32 46, i32 40
  %28 = getelementptr [2 x i32], ptr %13, i64 0, i64 0
  store i32 %27, ptr %28, align 4
  %29 = getelementptr [2 x i32], ptr %13, i64 0, i64 0
  %30 = load i32, ptr %29, align 4
  %31 = load i32, ptr %12, align 4
  %32 = mul i32 %31, 8
  %33 = add i32 %30, %32
  %34 = add i32 %33, 2
  %35 = getelementptr [2 x i32], ptr %13, i64 0, i64 1
  store i32 %34, ptr %35, align 4
  br label %44

36:                                               ; preds = %5
  store i32 2, ptr %11, align 4
  %37 = load i8, ptr %7, align 1, !range !6, !noundef !7
  %38 = trunc i8 %37 to i1
  %39 = select i1 %38, i32 37, i32 28
  %40 = getelementptr [2 x i32], ptr %13, i64 0, i64 0
  store i32 %39, ptr %40, align 4
  br label %44

41:                                               ; preds = %5
  store i32 2, ptr %11, align 4
  %42 = getelementptr [2 x i32], ptr %13, i64 0, i64 0
  store i32 31, ptr %42, align 4
  br label %44

43:                                               ; preds = %5
  store i32 1, ptr %11, align 4
  br label %44

44:                                               ; preds = %43, %41, %36, %24
  %45 = load i32, ptr %11, align 4
  %46 = load ptr, ptr %8, align 8
  store i32 %45, ptr %46, align 4
  %47 = load i32, ptr %12, align 4
  %48 = mul i32 %47, 8
  %49 = add i32 %48, 2
  %50 = load ptr, ptr %9, align 8
  store i32 %49, ptr %50, align 4
  %51 = getelementptr [2 x i32], ptr %13, i64 0, i64 0
  %52 = load i32, ptr %51, align 4
  %53 = load ptr, ptr %10, align 8
  %54 = getelementptr i32, ptr %53, i64 0
  store i32 %52, ptr %54, align 4
  %55 = getelementptr [2 x i32], ptr %13, i64 0, i64 1
  %56 = load i32, ptr %55, align 4
  %57 = load ptr, ptr %10, align 8
  %58 = getelementptr i32, ptr %57, i64 1
  store i32 %56, ptr %58, align 4
  call void @llvm.lifetime.end.p0(i64 8, ptr %13) #10
  call void @llvm.lifetime.end.p0(i64 4, ptr %12) #10
  call void @llvm.lifetime.end.p0(i64 4, ptr %11) #10
  ret void
}

; Function Attrs: nounwind null_pointer_is_valid sspstrong uwtable
define internal void @tvb_len_get_mcs_and_fmt(i32 noundef %0, i1 noundef zeroext %1, ptr noundef %2, ptr noundef %3) #4 {
  %5 = alloca i32, align 4
  %6 = alloca i8, align 1
  %7 = alloca ptr, align 8
  %8 = alloca ptr, align 8
  store i32 %0, ptr %5, align 4
  %9 = zext i1 %1 to i8
  store i8 %9, ptr %6, align 1
  store ptr %2, ptr %7, align 8
  store ptr %3, ptr %8, align 8
  %10 = load i32, ptr %5, align 4
  %11 = icmp ule i32 %10, 5
  br i1 %11, label %12, label %18

12:                                               ; preds = %4
  %13 = load i8, ptr %6, align 1, !range !6, !noundef !7
  %14 = trunc i8 %13 to i1
  br i1 %14, label %15, label %18

15:                                               ; preds = %12
  %16 = load ptr, ptr %7, align 8
  store i32 32, ptr %16, align 4
  %17 = load ptr, ptr %8, align 8
  store i8 0, ptr %17, align 1
  br label %62

18:                                               ; preds = %12, %4
  %19 = load i32, ptr %5, align 4
  switch i32 %19, label %59 [
    i32 23, label %20
    i32 34, label %23
    i32 40, label %26
    i32 54, label %29
    i32 27, label %32
    i32 33, label %35
    i32 42, label %38
    i32 49, label %41
    i32 60, label %44
    i32 61, label %44
    i32 78, label %47
    i32 79, label %47
    i32 118, label %50
    i32 119, label %50
    i32 142, label %53
    i32 143, label %53
    i32 154, label %56
    i32 155, label %56
  ]

20:                                               ; preds = %18
  %21 = load ptr, ptr %7, align 8
  store i32 33, ptr %21, align 4
  %22 = load ptr, ptr %8, align 8
  store i8 0, ptr %22, align 1
  br label %62

23:                                               ; preds = %18
  %24 = load ptr, ptr %7, align 8
  store i32 34, ptr %24, align 4
  %25 = load ptr, ptr %8, align 8
  store i8 0, ptr %25, align 1
  br label %62

26:                                               ; preds = %18
  %27 = load ptr, ptr %7, align 8
  store i32 35, ptr %27, align 4
  %28 = load ptr, ptr %8, align 8
  store i8 0, ptr %28, align 1
  br label %62

29:                                               ; preds = %18
  %30 = load ptr, ptr %7, align 8
  store i32 36, ptr %30, align 4
  %31 = load ptr, ptr %8, align 8
  store i8 0, ptr %31, align 1
  br label %62

32:                                               ; preds = %18
  %33 = load ptr, ptr %7, align 8
  store i32 51, ptr %33, align 4
  %34 = load ptr, ptr %8, align 8
  store i8 1, ptr %34, align 1
  br label %62

35:                                               ; preds = %18
  %36 = load ptr, ptr %7, align 8
  store i32 51, ptr %36, align 4
  %37 = load ptr, ptr %8, align 8
  store i8 2, ptr %37, align 1
  br label %62

38:                                               ; preds = %18
  %39 = load ptr, ptr %7, align 8
  store i32 51, ptr %39, align 4
  %40 = load ptr, ptr %8, align 8
  store i8 3, ptr %40, align 1
  br label %62

41:                                               ; preds = %18
  %42 = load ptr, ptr %7, align 8
  store i32 51, ptr %42, align 4
  %43 = load ptr, ptr %8, align 8
  store i8 4, ptr %43, align 1
  br label %62

44:                                               ; preds = %18, %18
  %45 = load ptr, ptr %7, align 8
  store i32 50, ptr %45, align 4
  %46 = load ptr, ptr %8, align 8
  store i8 5, ptr %46, align 1
  br label %62

47:                                               ; preds = %18, %18
  %48 = load ptr, ptr %7, align 8
  store i32 50, ptr %48, align 4
  %49 = load ptr, ptr %8, align 8
  store i8 6, ptr %49, align 1
  br label %62

50:                                               ; preds = %18, %18
  %51 = load ptr, ptr %7, align 8
  store i32 49, ptr %51, align 4
  %52 = load ptr, ptr %8, align 8
  store i8 7, ptr %52, align 1
  br label %62

53:                                               ; preds = %18, %18
  %54 = load ptr, ptr %7, align 8
  store i32 49, ptr %54, align 4
  %55 = load ptr, ptr %8, align 8
  store i8 8, ptr %55, align 1
  br label %62

56:                                               ; preds = %18, %18
  %57 = load ptr, ptr %7, align 8
  store i32 49, ptr %57, align 4
  %58 = load ptr, ptr %8, align 8
  store i8 9, ptr %58, align 1
  br label %62

59:                                               ; preds = %18
  %60 = load ptr, ptr %7, align 8
  store i32 33, ptr %60, align 4
  %61 = load ptr, ptr %8, align 8
  store i8 0, ptr %61, align 1
  br label %62

62:                                               ; preds = %15, %59, %56, %53, %50, %47, %44, %41, %38, %35, %32, %29, %26, %23, %20
  ret void
}

; Function Attrs: null_pointer_is_valid sspstrong uwtable
define internal void @handle_rlcmac(i32 noundef %0, ptr noundef %1, ptr noundef %2, ptr noundef %3) #0 {
  %5 = alloca i32, align 4
  %6 = alloca ptr, align 8
  %7 = alloca ptr, align 8
  %8 = alloca ptr, align 8
  %9 = alloca i32, align 4
  %10 = alloca %struct.RlcMacPrivateData_t, align 4
  %11 = alloca ptr, align 8
  %12 = alloca i32, align 4
  %13 = alloca [2 x i32], align 4
  %14 = alloca i32, align 4
  %15 = alloca i8, align 1
  store i32 %0, ptr %5, align 4
  store ptr %1, ptr %6, align 8
  store ptr %2, ptr %7, align 8
  store ptr %3, ptr %8, align 8
  call void @llvm.lifetime.start.p0(i64 4, ptr %9) #10
  call void @llvm.lifetime.start.p0(i64 28, ptr %10) #10
  call void @llvm.memset.p0.i64(ptr align 4 %10, i8 0, i64 28, i1 false)
  call void @llvm.lifetime.start.p0(i64 8, ptr %11) #10
  call void @llvm.lifetime.start.p0(i64 4, ptr %12) #10
  call void @llvm.lifetime.start.p0(i64 8, ptr %13) #10
  call void @llvm.lifetime.start.p0(i64 4, ptr %14) #10
  call void @llvm.lifetime.start.p0(i64 1, ptr %15) #10
  %16 = load ptr, ptr %7, align 8
  %17 = getelementptr inbounds nuw %struct._packet_info, ptr %16, i32 0, i32 37
  %18 = load i32, ptr %17, align 4
  %19 = icmp eq i32 %18, 0
  br i1 %19, label %20, label %21

20:                                               ; preds = %4
  store i8 1, ptr %15, align 1
  store i32 3, ptr %9, align 4
  br label %22

21:                                               ; preds = %4
  store i8 0, ptr %15, align 1
  store i32 4, ptr %9, align 4
  br label %22

22:                                               ; preds = %21, %20
  %23 = getelementptr inbounds nuw %struct.RlcMacPrivateData_t, ptr %10, i32 0, i32 0
  store i32 1735422579, ptr %23, align 4
  %24 = load i32, ptr %5, align 4
  %25 = getelementptr inbounds nuw %struct.RlcMacPrivateData_t, ptr %10, i32 0, i32 3
  store i32 %24, ptr %25, align 4
  %26 = load ptr, ptr %6, align 8
  %27 = call i32 @tvb_reported_length(ptr noundef %26)
  %28 = load i8, ptr %15, align 1, !range !6, !noundef !7
  %29 = trunc i8 %28 to i1
  %30 = getelementptr inbounds nuw %struct.RlcMacPrivateData_t, ptr %10, i32 0, i32 1
  %31 = getelementptr inbounds nuw %struct.RlcMacPrivateData_t, ptr %10, i32 0, i32 2
  call void @tvb_len_get_mcs_and_fmt(i32 noundef %27, i1 noundef zeroext %29, ptr noundef %30, ptr noundef %31)
  %32 = getelementptr inbounds nuw %struct.RlcMacPrivateData_t, ptr %10, i32 0, i32 1
  %33 = load i32, ptr %32, align 4
  switch i32 %33, label %84 [
    i32 49, label %34
    i32 50, label %34
    i32 51, label %34
  ]

34:                                               ; preds = %22, %22, %22
  %35 = load i32, ptr %9, align 4
  %36 = sext i32 %35 to i64
  %37 = getelementptr [31 x ptr], ptr @sub_handles, i64 0, i64 %36
  %38 = load ptr, ptr %37, align 8
  %39 = load ptr, ptr %6, align 8
  %40 = load ptr, ptr %7, align 8
  %41 = load ptr, ptr %8, align 8
  %42 = call i32 @call_dissector_with_data(ptr noundef %38, ptr noundef %39, ptr noundef %40, ptr noundef %41, ptr noundef %10)
  %43 = load i8, ptr %15, align 1, !range !6, !noundef !7
  %44 = trunc i8 %43 to i1
  %45 = getelementptr inbounds [2 x i32], ptr %13, i64 0, i64 0
  call void @setup_rlc_mac_priv(ptr noundef %10, i1 noundef zeroext %44, ptr noundef %14, ptr noundef %12, ptr noundef %45)
  %46 = load i32, ptr %14, align 4
  %47 = icmp uge i32 %46, 2
  br i1 %47, label %48, label %64

48:                                               ; preds = %34
  %49 = getelementptr inbounds nuw %struct.RlcMacPrivateData_t, ptr %10, i32 0, i32 4
  store i32 1, ptr %49, align 4
  %50 = load ptr, ptr %6, align 8
  %51 = getelementptr [2 x i32], ptr %13, i64 0, i64 0
  %52 = load i32, ptr %51, align 4
  %53 = load i32, ptr %12, align 4
  %54 = load ptr, ptr %7, align 8
  %55 = call ptr @get_egprs_data_block(ptr noundef %50, i32 noundef %52, i32 noundef %53, ptr noundef %54)
  store ptr %55, ptr %11, align 8
  %56 = load i32, ptr %9, align 4
  %57 = sext i32 %56 to i64
  %58 = getelementptr [31 x ptr], ptr @sub_handles, i64 0, i64 %57
  %59 = load ptr, ptr %58, align 8
  %60 = load ptr, ptr %11, align 8
  %61 = load ptr, ptr %7, align 8
  %62 = load ptr, ptr %8, align 8
  %63 = call i32 @call_dissector_with_data(ptr noundef %59, ptr noundef %60, ptr noundef %61, ptr noundef %62, ptr noundef %10)
  br label %64

64:                                               ; preds = %48, %34
  %65 = load i32, ptr %14, align 4
  %66 = icmp eq i32 %65, 3
  br i1 %66, label %67, label %83

67:                                               ; preds = %64
  %68 = getelementptr inbounds nuw %struct.RlcMacPrivateData_t, ptr %10, i32 0, i32 4
  store i32 2, ptr %68, align 4
  %69 = load ptr, ptr %6, align 8
  %70 = getelementptr [2 x i32], ptr %13, i64 0, i64 1
  %71 = load i32, ptr %70, align 4
  %72 = load i32, ptr %12, align 4
  %73 = load ptr, ptr %7, align 8
  %74 = call ptr @get_egprs_data_block(ptr noundef %69, i32 noundef %71, i32 noundef %72, ptr noundef %73)
  store ptr %74, ptr %11, align 8
  %75 = load i32, ptr %9, align 4
  %76 = sext i32 %75 to i64
  %77 = getelementptr [31 x ptr], ptr @sub_handles, i64 0, i64 %76
  %78 = load ptr, ptr %77, align 8
  %79 = load ptr, ptr %11, align 8
  %80 = load ptr, ptr %7, align 8
  %81 = load ptr, ptr %8, align 8
  %82 = call i32 @call_dissector_with_data(ptr noundef %78, ptr noundef %79, ptr noundef %80, ptr noundef %81, ptr noundef %10)
  br label %83

83:                                               ; preds = %67, %64
  br label %93

84:                                               ; preds = %22
  %85 = load i32, ptr %9, align 4
  %86 = sext i32 %85 to i64
  %87 = getelementptr [31 x ptr], ptr @sub_handles, i64 0, i64 %86
  %88 = load ptr, ptr %87, align 8
  %89 = load ptr, ptr %6, align 8
  %90 = load ptr, ptr %7, align 8
  %91 = load ptr, ptr %8, align 8
  %92 = call i32 @call_dissector_with_data(ptr noundef %88, ptr noundef %89, ptr noundef %90, ptr noundef %91, ptr noundef %10)
  br label %93

93:                                               ; preds = %84, %83
  call void @llvm.lifetime.end.p0(i64 1, ptr %15) #10
  call void @llvm.lifetime.end.p0(i64 4, ptr %14) #10
  call void @llvm.lifetime.end.p0(i64 8, ptr %13) #10
  call void @llvm.lifetime.end.p0(i64 4, ptr %12) #10
  call void @llvm.lifetime.end.p0(i64 8, ptr %11) #10
  call void @llvm.lifetime.end.p0(i64 28, ptr %10) #10
  call void @llvm.lifetime.end.p0(i64 4, ptr %9) #10
  ret void
}