; Function Attrs: null_pointer_is_valid sspstrong uwtable
define internal fastcc void @handle_rlcmac(i32 noundef %0, ptr noundef %1, ptr noundef %2, ptr noundef %3) unnamed_addr #0 {
  %5 = alloca %struct.RlcMacPrivateData_t, align 4
  call void @llvm.lifetime.start.p0(i64 28, ptr nonnull %5) #7
  %6 = getelementptr inbounds nuw i8, ptr %5, i64 4
  call void @llvm.memset.p0.i64(ptr noundef nonnull align 4 dereferenceable(28) %6, i8 0, i64 24, i1 false)
  %7 = getelementptr inbounds nuw i8, ptr %2, i64 348
  %8 = load i32, ptr %7, align 4
  %9 = icmp eq i32 %8, 0
  %. = select i1 %9, i64 3, i64 4
  store i32 1735422579, ptr %5, align 4
  %10 = getelementptr inbounds nuw i8, ptr %5, i64 12
  store i32 %0, ptr %10, align 4
  %11 = tail call i32 @tvb_reported_length(ptr noundef %1)
  %12 = getelementptr inbounds nuw i8, ptr %5, i64 4
  %13 = getelementptr inbounds nuw i8, ptr %5, i64 8
  %14 = icmp ult i32 %11, 6
  %brmerge.not.i = and i1 %9, %14
  br i1 %brmerge.not.i, label %53, label %15

15:                                               ; preds = %4
  switch i32 %11, label %26 [
    i32 155, label %25
    i32 34, label %53
    i32 40, label %16
    i32 54, label %17
    i32 27, label %27
    i32 33, label %18
    i32 42, label %19
    i32 49, label %20
    i32 60, label %21
    i32 61, label %21
    i32 78, label %22
    i32 79, label %22
    i32 118, label %23
    i32 119, label %23
    i32 142, label %24
    i32 143, label %24
    i32 154, label %25
  ]

16:                                               ; preds = %15
  br label %53

17:                                               ; preds = %15
  br label %53

18:                                               ; preds = %15
  br label %27

19:                                               ; preds = %15
  br label %27

20:                                               ; preds = %15
  br label %27

21:                                               ; preds = %15, %15
  br label %27

22:                                               ; preds = %15, %15
  br label %27

23:                                               ; preds = %15, %15
  br label %27

24:                                               ; preds = %15, %15
  br label %27

25:                                               ; preds = %15, %15
  br label %27

26:                                               ; preds = %15
  br label %53

27:                                               ; preds = %15, %25, %24, %23, %22, %21, %20, %19, %18
  %.sink33.i.ph = phi i32 [ 51, %18 ], [ 51, %19 ], [ 51, %20 ], [ 50, %21 ], [ 50, %22 ], [ 49, %23 ], [ 49, %24 ], [ 49, %25 ], [ 51, %15 ]
  %.sink.i.ph = phi i8 [ 2, %18 ], [ 3, %19 ], [ 4, %20 ], [ 5, %21 ], [ 6, %22 ], [ 7, %23 ], [ 8, %24 ], [ 9, %25 ], [ 1, %15 ]
  store i32 %.sink33.i.ph, ptr %12, align 4
  store i8 %.sink.i.ph, ptr %13, align 4
  %28 = getelementptr [31 x ptr], ptr @sub_handles, i64 0, i64 %.
  %29 = load ptr, ptr %28, align 8
  %30 = call i32 @call_dissector_with_data(ptr noundef %29, ptr noundef %1, ptr noundef %2, ptr noundef %3, ptr noundef nonnull %5)
  %.val = load i32, ptr %12, align 4
  %.val25 = load i8, ptr %13, align 4
  %31 = zext i8 %.val25 to i64
  %32 = getelementptr [11 x i32], ptr @data_block_len_by_mcs, i64 0, i64 %31
  %33 = load i32, ptr %32, align 4
  switch i32 %.val, label %.thread [
    i32 49, label %34
    i32 50, label %39
    i32 51, label %41
  ]

34:                                               ; preds = %27
  %35 = select i1 %9, i32 46, i32 40
  %36 = shl i32 %33, 3
  %37 = add nuw nsw i32 %35, 2
  %38 = add i32 %37, %36
  br label %41

39:                                               ; preds = %27
  %40 = select i1 %9, i32 37, i32 28
  br label %41

41:                                               ; preds = %27, %34, %39
  %42 = phi i1 [ false, %27 ], [ true, %34 ], [ false, %39 ]
  %.sroa.0.0.i.ph = phi i32 [ 31, %27 ], [ %35, %34 ], [ %40, %39 ]
  %.sroa.8.0.i.ph = phi i32 [ 0, %27 ], [ %38, %34 ], [ 0, %39 ]
  %43 = shl i32 %33, 3
  %44 = or disjoint i32 %43, 2
  %45 = getelementptr inbounds nuw i8, ptr %5, i64 16
  store i32 1, ptr %45, align 4
  %46 = call fastcc ptr @get_egprs_data_block(ptr noundef %1, i32 noundef %.sroa.0.0.i.ph, i32 noundef %44, ptr noundef %2)
  %47 = load ptr, ptr %28, align 8
  %48 = call i32 @call_dissector_with_data(ptr noundef %47, ptr noundef %46, ptr noundef %2, ptr noundef %3, ptr noundef nonnull %5)
  br i1 %42, label %49, label %.thread

49:                                               ; preds = %41
  store i32 2, ptr %45, align 4
  %50 = call fastcc ptr @get_egprs_data_block(ptr noundef %1, i32 noundef %.sroa.8.0.i.ph, i32 noundef %44, ptr noundef %2)
  %51 = load ptr, ptr %28, align 8
  %52 = call i32 @call_dissector_with_data(ptr noundef %51, ptr noundef %50, ptr noundef %2, ptr noundef %3, ptr noundef nonnull %5)
  br label %.thread

53:                                               ; preds = %26, %17, %16, %15, %4
  %.sink33.i = phi i32 [ 33, %26 ], [ 36, %17 ], [ 35, %16 ], [ 32, %4 ], [ %11, %15 ]
  store i32 %.sink33.i, ptr %12, align 4
  store i8 0, ptr %13, align 4
  %54 = getelementptr [31 x ptr], ptr @sub_handles, i64 0, i64 %.
  %55 = load ptr, ptr %54, align 8
  %56 = call i32 @call_dissector_with_data(ptr noundef %55, ptr noundef %1, ptr noundef %2, ptr noundef %3, ptr noundef nonnull %5)
  br label %.thread

.thread:                                          ; preds = %27, %41, %49, %53
  call void @llvm.lifetime.end.p0(i64 28, ptr nonnull %5) #7
  ret void
}